; ModuleID = '29/1960.c'
source_filename = "29/1960.c"
target datalayout = "e-m:e-p270:32:32-p271:32:32-p272:64:64-i64:64-f80:128-n8:16:32:64-S128"
target triple = "x86_64-pc-linux-gnu"

@.str = private unnamed_addr constant [3 x i8] c"%d\00", align 1
@.str.1 = private unnamed_addr constant [6 x i8] c"%.3f\0A\00", align 1

; Function Attrs: noinline nounwind uwtable
define dso_local void @jisuanb(double* %0, i32 %1, double* %2) #0 {
  %4 = alloca double*, align 8
  %5 = alloca i32, align 4
  %6 = alloca double*, align 8
  %7 = alloca i32, align 4
  store double* %0, double** %4, align 8
  store i32 %1, i32* %5, align 4
  store double* %2, double** %6, align 8
  store i32 1, i32* %7, align 4
  br label %8

8:                                                ; preds = %46, %3
  %9 = load i32, i32* %7, align 4
  %10 = load i32, i32* %5, align 4
  %11 = icmp sle i32 %9, %10
  br i1 %11, label %12, label %49

12:                                               ; preds = %8
  %13 = load double*, double** %6, align 8
  %14 = load i32, i32* %7, align 4
  %15 = sext i32 %14 to i64
  %16 = getelementptr inbounds double, double* %13, i64 %15
  %17 = load double, double* %16, align 8
  %18 = load double*, double** %6, align 8
  %19 = load i32, i32* %7, align 4
  %20 = add nsw i32 %19, 1
  %21 = sext i32 %20 to i64
  %22 = getelementptr inbounds double, double* %18, i64 %21
  %23 = load double, double* %22, align 8
  %24 = fadd double %17, %23
  %25 = load double*, double** %6, align 8
  %26 = load i32, i32* %7, align 4
  %27 = add nsw i32 %26, 2
  %28 = sext i32 %27 to i64
  %29 = getelementptr inbounds double, double* %25, i64 %28
  store double %24, double* %29, align 8
  %30 = load double*, double** %6, align 8
  %31 = load i32, i32* %7, align 4
  %32 = add nsw i32 %31, 1
  %33 = sext i32 %32 to i64
  %34 = getelementptr inbounds double, double* %30, i64 %33
  %35 = load double, double* %34, align 8
  %36 = load double*, double** %6, align 8
  %37 = load i32, i32* %7, align 4
  %38 = sext i32 %37 to i64
  %39 = getelementptr inbounds double, double* %36, i64 %38
  %40 = load double, double* %39, align 8
  %41 = fdiv double %35, %40
  %42 = load double*, double** %4, align 8
  %43 = load i32, i32* %7, align 4
  %44 = sext i32 %43 to i64
  %45 = getelementptr inbounds double, double* %42, i64 %44
  store double %41, double* %45, align 8
  br label %46

46:                                               ; preds = %12
  %47 = load i32, i32* %7, align 4
  %48 = add nsw i32 %47, 1
  store i32 %48, i32* %7, align 4
  br label %8

49:                                               ; preds = %8
  ret void
}

; Function Attrs: noinline nounwind uwtable
define dso_local i32 @main() #0 {
  %1 = alloca i32, align 4
  %2 = alloca double, align 8
  %3 = alloca [100 x double], align 16
  %4 = alloca [100 x double], align 16
  %5 = alloca i32, align 4
  %6 = alloca i32, align 4
  %7 = alloca [100 x i32], align 16
  %8 = alloca i32, align 4
  store i32 0, i32* %1, align 4
  store double 0.000000e+00, double* %2, align 8
  %9 = getelementptr inbounds [100 x double], [100 x double]* %4, i64 0, i64 1
  store double 1.000000e+00, double* %9, align 8
  %10 = getelementptr inbounds [100 x double], [100 x double]* %4, i64 0, i64 2
  store double 2.000000e+00, double* %10, align 16
  %11 = call i32 (i8*, ...) @__isoc99_scanf(i8* getelementptr inbounds ([3 x i8], [3 x i8]* @.str, i64 0, i64 0), i32* %5)
  store i32 0, i32* %6, align 4
  br label %12

12:                                               ; preds = %21, %0
  %13 = load i32, i32* %6, align 4
  %14 = load i32, i32* %5, align 4
  %15 = icmp slt i32 %13, %14
  br i1 %15, label %16, label %24

16:                                               ; preds = %12
  %17 = load i32, i32* %6, align 4
  %18 = sext i32 %17 to i64
  %19 = getelementptr inbounds [100 x i32], [100 x i32]* %7, i64 0, i64 %18
  %20 = call i32 (i8*, ...) @__isoc99_scanf(i8* getelementptr inbounds ([3 x i8], [3 x i8]* @.str, i64 0, i64 0), i32* %19)
  br label %21

21:                                               ; preds = %16
  %22 = load i32, i32* %6, align 4
  %23 = add nsw i32 %22, 1
  store i32 %23, i32* %6, align 4
  br label %12

24:                                               ; preds = %12
  store i32 0, i32* %6, align 4
  br label %25

25:                                               ; preds = %57, %24
  %26 = load i32, i32* %6, align 4
  %27 = load i32, i32* %5, align 4
  %28 = icmp slt i32 %26, %27
  br i1 %28, label %29, label %60

29:                                               ; preds = %25
  store double 0.000000e+00, double* %2, align 8
  %30 = getelementptr inbounds [100 x double], [100 x double]* %3, i64 0, i64 0
  %31 = load i32, i32* %6, align 4
  %32 = sext i32 %31 to i64
  %33 = getelementptr inbounds [100 x i32], [100 x i32]* %7, i64 0, i64 %32
  %34 = load i32, i32* %33, align 4
  %35 = getelementptr inbounds [100 x double], [100 x double]* %4, i64 0, i64 0
  call void @jisuanb(double* %30, i32 %34, double* %35)
  store i32 0, i32* %8, align 4
  br label %36

36:                                               ; preds = %51, %29
  %37 = load i32, i32* %8, align 4
  %38 = load i32, i32* %6, align 4
  %39 = sext i32 %38 to i64
  %40 = getelementptr inbounds [100 x i32], [100 x i32]* %7, i64 0, i64 %39
  %41 = load i32, i32* %40, align 4
  %42 = icmp slt i32 %37, %41
  br i1 %42, label %43, label %54

43:                                               ; preds = %36
  %44 = load i32, i32* %8, align 4
  %45 = add nsw i32 %44, 1
  %46 = sext i32 %45 to i64
  %47 = getelementptr inbounds [100 x double], [100 x double]* %3, i64 0, i64 %46
  %48 = load double, double* %47, align 8
  %49 = load double, double* %2, align 8
  %50 = fadd double %49, %48
  store double %50, double* %2, align 8
  br label %51

51:                                               ; preds = %43
  %52 = load i32, i32* %8, align 4
  %53 = add nsw i32 %52, 1
  store i32 %53, i32* %8, align 4
  br label %36

54:                                               ; preds = %36
  %55 = load double, double* %2, align 8
  %56 = call i32 (i8*, ...) @printf(i8* getelementptr inbounds ([6 x i8], [6 x i8]* @.str.1, i64 0, i64 0), double %55)
  br label %57

57:                                               ; preds = %54
  %58 = load i32, i32* %6, align 4
  %59 = add nsw i32 %58, 1
  store i32 %59, i32* %6, align 4
  br label %25

60:                                               ; preds = %25
  ret i32 0
}

declare dso_local i32 @__isoc99_scanf(i8*, ...) #1

declare dso_local i32 @printf(i8*, ...) #1


!llvm.module.flags = !{!0}
!llvm.ident = !{!1}

!0 = !{i32 1, !"wchar_size", i32 4}
!1 = !{!"clang version 10.0.0-4ubuntu1 "}
